target datalayout = "e-m:e-p270:32:32-p271:32:32-p272:64:64-i64:64-i128:128-f80:128-n8:16:32:64-S128"
target triple = "x86_64-pc-linux-gnu"

%"class.cm::static_string_view" = type { %"class.std::basic_string_view" }
%"class.std::basic_string_view" = type { i64, ptr }
%"struct.__gnu_cxx::__ops::_Iter_equals_val" = type { ptr }

@.str.177 = private unnamed_addr constant [6 x i8] c"clean\00", align 1
@_ZZN17cmGlobalGenerator16IsReservedTargetERKNSt7__cxx1112basic_stringIcSt11char_traitsIcESaIcEEEE15reservedTargets = internal global [10 x %"class.cm::static_string_view"] zeroinitializer, align 16
@_ZGVZN17cmGlobalGenerator16IsReservedTargetERKNSt7__cxx1112basic_stringIcSt11char_traitsIcESaIcEEEE15reservedTargets = internal global i64 0, align 8
@.str.259 = private unnamed_addr constant [4 x i8] c"all\00", align 1
@.str.260 = private unnamed_addr constant [10 x i8] c"ALL_BUILD\00", align 1
@.str.261 = private unnamed_addr constant [5 x i8] c"help\00", align 1
@.str.262 = private unnamed_addr constant [8 x i8] c"install\00", align 1
@.str.263 = private unnamed_addr constant [8 x i8] c"INSTALL\00", align 1
@.str.264 = private unnamed_addr constant [11 x i8] c"preinstall\00", align 1
@.str.265 = private unnamed_addr constant [11 x i8] c"edit_cache\00", align 1
@.str.266 = private unnamed_addr constant [14 x i8] c"rebuild_cache\00", align 1
@.str.267 = private unnamed_addr constant [11 x i8] c"ZERO_CHECK\00", align 1

; Function Attrs: mustprogress nounwind uwtable
define linkonce_odr dso_local void @_ZSt19__iterator_categoryIPKN2cm18static_string_viewEENSt15iterator_traitsIT_E17iterator_categoryERKS5_(ptr noundef nonnull align 8 dereferenceable(8) %0) #5 comdat {
  %2 = alloca ptr, align 8
  store ptr %0, ptr %2, align 8
  ret void
}

; Function Attrs: mustprogress nounwind uwtable
define linkonce_odr dso_local void @_ZN9__gnu_cxx5__ops16_Iter_equals_valIKNSt7__cxx1112basic_stringIcSt11char_traitsIcESaIcEEEEC2ERS8_(ptr noundef nonnull align 8 dereferenceable(8) %0, ptr noundef nonnull align 8 dereferenceable(32) %1) unnamed_addr #5 comdat align 2 {
  %3 = alloca ptr, align 8
  %4 = alloca ptr, align 8
  store ptr %0, ptr %3, align 8
  store ptr %1, ptr %4, align 8
  %5 = load ptr, ptr %3, align 8
  %6 = getelementptr inbounds %"struct.__gnu_cxx::__ops::_Iter_equals_val", ptr %5, i32 0, i32 0
  %7 = load ptr, ptr %4, align 8
  store ptr %7, ptr %6, align 8
  ret void
}

; Function Attrs: mustprogress uwtable
define linkonce_odr dso_local noundef ptr @_ZSt9__find_ifIPKN2cm18static_string_viewEN9__gnu_cxx5__ops16_Iter_equals_valIKNSt7__cxx1112basic_stringIcSt11char_traitsIcESaIcEEEEEET_SF_SF_T0_(ptr noundef %0, ptr noundef %1, ptr %2) #4 comdat {
  %4 = alloca %"struct.__gnu_cxx::__ops::_Iter_equals_val", align 8
  %5 = alloca ptr, align 8
  %6 = alloca ptr, align 8
  %7 = alloca %"struct.__gnu_cxx::__ops::_Iter_equals_val", align 8
  %8 = getelementptr inbounds %"struct.__gnu_cxx::__ops::_Iter_equals_val", ptr %4, i32 0, i32 0
  store ptr %2, ptr %8, align 8
  store ptr %0, ptr %5, align 8
  store ptr %1, ptr %6, align 8
  %9 = load ptr, ptr %5, align 8
  %10 = load ptr, ptr %6, align 8
  call void @llvm.memcpy.p0.p0.i64(ptr align 8 %7, ptr align 8 %4, i64 8, i1 false)
  call void @_ZSt19__iterator_categoryIPKN2cm18static_string_viewEENSt15iterator_traitsIT_E17iterator_categoryERKS5_(ptr noundef nonnull align 8 dereferenceable(8) %5)
  %11 = getelementptr inbounds %"struct.__gnu_cxx::__ops::_Iter_equals_val", ptr %7, i32 0, i32 0
  %12 = load ptr, ptr %11, align 8
  %13 = call noundef ptr @_ZSt9__find_ifIPKN2cm18static_string_viewEN9__gnu_cxx5__ops16_Iter_equals_valIKNSt7__cxx1112basic_stringIcSt11char_traitsIcESaIcEEEEEET_SF_SF_T0_St26random_access_iterator_tag(ptr noundef %9, ptr noundef %10, ptr %12)
  ret ptr %13
}

; Function Attrs: mustprogress uwtable
define linkonce_odr dso_local ptr @_ZN9__gnu_cxx5__ops17__iter_equals_valIKNSt7__cxx1112basic_stringIcSt11char_traitsIcESaIcEEEEENS0_16_Iter_equals_valIT_EERSA_(ptr noundef nonnull align 8 dereferenceable(32) %0) #4 comdat {
  %2 = alloca %"struct.__gnu_cxx::__ops::_Iter_equals_val", align 8
  %3 = alloca ptr, align 8
  store ptr %0, ptr %3, align 8
  %4 = load ptr, ptr %3, align 8
  call void @_ZN9__gnu_cxx5__ops16_Iter_equals_valIKNSt7__cxx1112basic_stringIcSt11char_traitsIcESaIcEEEEC2ERS8_(ptr noundef nonnull align 8 dereferenceable(8) %2, ptr noundef nonnull align 8 dereferenceable(32) %4)
  %5 = getelementptr inbounds %"struct.__gnu_cxx::__ops::_Iter_equals_val", ptr %2, i32 0, i32 0
  %6 = load ptr, ptr %5, align 8
  ret ptr %6
}

; Function Attrs: mustprogress uwtable
define linkonce_odr dso_local noundef ptr @_ZSt4findIPKN2cm18static_string_viewENSt7__cxx1112basic_stringIcSt11char_traitsIcESaIcEEEET_SA_SA_RKT0_(ptr noundef %0, ptr noundef %1, ptr noundef nonnull align 8 dereferenceable(32) %2) #4 comdat {
  %4 = alloca ptr, align 8
  %5 = alloca ptr, align 8
  %6 = alloca ptr, align 8
  %7 = alloca %"struct.__gnu_cxx::__ops::_Iter_equals_val", align 8
  store ptr %0, ptr %4, align 8
  store ptr %1, ptr %5, align 8
  store ptr %2, ptr %6, align 8
  %8 = load ptr, ptr %4, align 8
  %9 = load ptr, ptr %5, align 8
  %10 = load ptr, ptr %6, align 8
  %11 = call ptr @_ZN9__gnu_cxx5__ops17__iter_equals_valIKNSt7__cxx1112basic_stringIcSt11char_traitsIcESaIcEEEEENS0_16_Iter_equals_valIT_EERSA_(ptr noundef nonnull align 8 dereferenceable(32) %10)
  %12 = getelementptr inbounds %"struct.__gnu_cxx::__ops::_Iter_equals_val", ptr %7, i32 0, i32 0
  store ptr %11, ptr %12, align 8
  %13 = getelementptr inbounds %"struct.__gnu_cxx::__ops::_Iter_equals_val", ptr %7, i32 0, i32 0
  %14 = load ptr, ptr %13, align 8
  %15 = call noundef ptr @_ZSt9__find_ifIPKN2cm18static_string_viewEN9__gnu_cxx5__ops16_Iter_equals_valIKNSt7__cxx1112basic_stringIcSt11char_traitsIcESaIcEEEEEET_SF_SF_T0_(ptr noundef %8, ptr noundef %9, ptr %14)
  ret ptr %15
}

; Function Attrs: mustprogress nounwind uwtable
define linkonce_odr dso_local noundef ptr @_ZSt3endIKN2cm18static_string_viewELm10EEPT_RAT0__S3_(ptr noundef nonnull align 8 dereferenceable(160) %0) #5 comdat {
  %2 = alloca ptr, align 8
  store ptr %0, ptr %2, align 8
  %3 = load ptr, ptr %2, align 8
  %4 = getelementptr inbounds [10 x %"class.cm::static_string_view"], ptr %3, i64 0, i64 0
  %5 = getelementptr inbounds %"class.cm::static_string_view", ptr %4, i64 10
  ret ptr %5
}

; Function Attrs: mustprogress nounwind uwtable
define linkonce_odr dso_local noundef ptr @_ZSt5beginIKN2cm18static_string_viewELm10EEPT_RAT0__S3_(ptr noundef nonnull align 8 dereferenceable(160) %0) #5 comdat {
  %2 = alloca ptr, align 8
  store ptr %0, ptr %2, align 8
  %3 = load ptr, ptr %2, align 8
  %4 = getelementptr inbounds [10 x %"class.cm::static_string_view"], ptr %3, i64 0, i64 0
  ret ptr %4
}

; Function Attrs: mustprogress nounwind uwtable
define linkonce_odr dso_local void @_ZN2cm18static_string_viewC2ESt17basic_string_viewIcSt11char_traitsIcEE(ptr noundef nonnull align 8 dereferenceable(16) %0, i64 %1, ptr %2) unnamed_addr #5 comdat align 2 {
  %4 = alloca %"class.std::basic_string_view", align 8
  %5 = alloca ptr, align 8
  %6 = getelementptr inbounds { i64, ptr }, ptr %4, i32 0, i32 0
  store i64 %1, ptr %6, align 8
  %7 = getelementptr inbounds { i64, ptr }, ptr %4, i32 0, i32 1
  store ptr %2, ptr %7, align 8
  store ptr %0, ptr %5, align 8
  %8 = load ptr, ptr %5, align 8
  call void @llvm.memcpy.p0.p0.i64(ptr align 8 %8, ptr align 8 %4, i64 16, i1 false)
  ret void
}

; Function Attrs: mustprogress nounwind uwtable
define linkonce_odr dso_local void @_ZNSt17basic_string_viewIcSt11char_traitsIcEEC2EPKcm(ptr noundef nonnull align 8 dereferenceable(16) %0, ptr noundef %1, i64 noundef %2) unnamed_addr #5 comdat align 2 {
  %4 = alloca ptr, align 8
  %5 = alloca ptr, align 8
  %6 = alloca i64, align 8
  store ptr %0, ptr %4, align 8
  store ptr %1, ptr %5, align 8
  store i64 %2, ptr %6, align 8
  %7 = load ptr, ptr %4, align 8
  %8 = getelementptr inbounds %"class.std::basic_string_view", ptr %7, i32 0, i32 0
  %9 = load i64, ptr %6, align 8
  store i64 %9, ptr %8, align 8
  %10 = getelementptr inbounds %"class.std::basic_string_view", ptr %7, i32 0, i32 1
  %11 = load ptr, ptr %5, align 8
  store ptr %11, ptr %10, align 8
  ret void
}

; Function Attrs: mustprogress uwtable
define linkonce_odr dso_local noundef zeroext i1 @_ZN2cm8containsIA10_NS_18static_string_viewENSt7__cxx1112basic_stringIcSt11char_traitsIcESaIcEEETnNSt9enable_ifIXaasr2cm14is_input_rangeIT_EE5valuentoosr2cm24is_associative_containerISA_EE5valuesr2cm34is_unordered_associative_containerISA_EE5valueEiE4typeELi0EEEbRKSA_RKT0_(ptr noundef nonnull align 8 dereferenceable(160) %0, ptr noundef nonnull align 8 dereferenceable(32) %1) #4 comdat {
  %3 = alloca ptr, align 8
  %4 = alloca ptr, align 8
  store ptr %0, ptr %3, align 8
  store ptr %1, ptr %4, align 8
  %5 = load ptr, ptr %3, align 8
  %6 = call noundef ptr @_ZSt5beginIKN2cm18static_string_viewELm10EEPT_RAT0__S3_(ptr noundef nonnull align 8 dereferenceable(160) %5) #3
  %7 = load ptr, ptr %3, align 8
  %8 = call noundef ptr @_ZSt3endIKN2cm18static_string_viewELm10EEPT_RAT0__S3_(ptr noundef nonnull align 8 dereferenceable(160) %7) #3
  %9 = load ptr, ptr %4, align 8
  %10 = call noundef ptr @_ZSt4findIPKN2cm18static_string_viewENSt7__cxx1112basic_stringIcSt11char_traitsIcESaIcEEEET_SA_SA_RKT0_(ptr noundef %6, ptr noundef %8, ptr noundef nonnull align 8 dereferenceable(32) %9)
  %11 = load ptr, ptr %3, align 8
  %12 = call noundef ptr @_ZSt3endIKN2cm18static_string_viewELm10EEPT_RAT0__S3_(ptr noundef nonnull align 8 dereferenceable(160) %11) #3
  %13 = icmp ne ptr %10, %12
  ret i1 %13
}

; Function Attrs: mustprogress uwtable
define linkonce_odr dso_local { i64, ptr } @_ZN2cmli2_sEPKcm(ptr noundef %0, i64 noundef %1) #4 comdat {
  %3 = alloca %"class.cm::static_string_view", align 8
  %4 = alloca ptr, align 8
  %5 = alloca i64, align 8
  %6 = alloca %"class.std::basic_string_view", align 8
  store ptr %0, ptr %4, align 8
  store i64 %1, ptr %5, align 8
  %7 = load ptr, ptr %4, align 8
  %8 = load i64, ptr %5, align 8
  call void @_ZNSt17basic_string_viewIcSt11char_traitsIcEEC2EPKcm(ptr noundef nonnull align 8 dereferenceable(16) %6, ptr noundef %7, i64 noundef %8) #3
  %9 = getelementptr inbounds { i64, ptr }, ptr %6, i32 0, i32 0
  %10 = load i64, ptr %9, align 8
  %11 = getelementptr inbounds { i64, ptr }, ptr %6, i32 0, i32 1
  %12 = load ptr, ptr %11, align 8
  call void @_ZN2cm18static_string_viewC2ESt17basic_string_viewIcSt11char_traitsIcEE(ptr noundef nonnull align 8 dereferenceable(16) %3, i64 %10, ptr %12)
  %13 = getelementptr inbounds %"class.cm::static_string_view", ptr %3, i32 0, i32 0
  %14 = load { i64, ptr }, ptr %13, align 8
  ret { i64, ptr } %14
}

; Function Attrs: mustprogress uwtable
define dso_local noundef zeroext i1 @_ZN17cmGlobalGenerator16IsReservedTargetERKNSt7__cxx1112basic_stringIcSt11char_traitsIcESaIcEEE(ptr noundef nonnull align 8 dereferenceable(32) %0) #4 align 2 personality ptr @__gxx_personality_v0 {
  %2 = alloca ptr, align 8
  %3 = alloca ptr, align 8
  %4 = alloca i32, align 4
  store ptr %0, ptr %2, align 8
  %5 = load atomic i8, ptr @_ZGVZN17cmGlobalGenerator16IsReservedTargetERKNSt7__cxx1112basic_stringIcSt11char_traitsIcESaIcEEEE15reservedTargets acquire, align 8
  %6 = icmp eq i8 %5, 0
  br i1 %6, label %7, label %51, !prof !15

7:                                                ; preds = %1
  %8 = call i32 @__cxa_guard_acquire(ptr @_ZGVZN17cmGlobalGenerator16IsReservedTargetERKNSt7__cxx1112basic_stringIcSt11char_traitsIcESaIcEEEE15reservedTargets) #3
  %9 = icmp ne i32 %8, 0
  br i1 %9, label %10, label %51

10:                                               ; preds = %7
  %11 = invoke { i64, ptr } @_ZN2cmli2_sEPKcm(ptr noundef @.str.259, i64 noundef 3)
          to label %12 unwind label %54

12:                                               ; preds = %10
  %13 = extractvalue { i64, ptr } %11, 0
  store i64 %13, ptr @_ZZN17cmGlobalGenerator16IsReservedTargetERKNSt7__cxx1112basic_stringIcSt11char_traitsIcESaIcEEEE15reservedTargets, align 16
  %14 = extractvalue { i64, ptr } %11, 1
  store ptr %14, ptr getelementptr inbounds ({ i64, ptr }, ptr @_ZZN17cmGlobalGenerator16IsReservedTargetERKNSt7__cxx1112basic_stringIcSt11char_traitsIcESaIcEEEE15reservedTargets, i32 0, i32 1), align 8
  %15 = invoke { i64, ptr } @_ZN2cmli2_sEPKcm(ptr noundef @.str.260, i64 noundef 9)
          to label %16 unwind label %54

16:                                               ; preds = %12
  %17 = extractvalue { i64, ptr } %15, 0
  store i64 %17, ptr getelementptr inbounds (%"class.cm::static_string_view", ptr @_ZZN17cmGlobalGenerator16IsReservedTargetERKNSt7__cxx1112basic_stringIcSt11char_traitsIcESaIcEEEE15reservedTargets, i64 1), align 16
  %18 = extractvalue { i64, ptr } %15, 1
  store ptr %18, ptr getelementptr inbounds ({ i64, ptr }, ptr getelementptr inbounds (%"class.cm::static_string_view", ptr @_ZZN17cmGlobalGenerator16IsReservedTargetERKNSt7__cxx1112basic_stringIcSt11char_traitsIcESaIcEEEE15reservedTargets, i64 1), i32 0, i32 1), align 8
  %19 = invoke { i64, ptr } @_ZN2cmli2_sEPKcm(ptr noundef @.str.261, i64 noundef 4)
          to label %20 unwind label %54

20:                                               ; preds = %16
  %21 = extractvalue { i64, ptr } %19, 0
  store i64 %21, ptr getelementptr inbounds (%"class.cm::static_string_view", ptr @_ZZN17cmGlobalGenerator16IsReservedTargetERKNSt7__cxx1112basic_stringIcSt11char_traitsIcESaIcEEEE15reservedTargets, i64 2), align 16
  %22 = extractvalue { i64, ptr } %19, 1
  store ptr %22, ptr getelementptr inbounds ({ i64, ptr }, ptr getelementptr inbounds (%"class.cm::static_string_view", ptr @_ZZN17cmGlobalGenerator16IsReservedTargetERKNSt7__cxx1112basic_stringIcSt11char_traitsIcESaIcEEEE15reservedTargets, i64 2), i32 0, i32 1), align 8
  %23 = invoke { i64, ptr } @_ZN2cmli2_sEPKcm(ptr noundef @.str.262, i64 noundef 7)
          to label %24 unwind label %54

24:                                               ; preds = %20
  %25 = extractvalue { i64, ptr } %23, 0
  store i64 %25, ptr getelementptr inbounds (%"class.cm::static_string_view", ptr @_ZZN17cmGlobalGenerator16IsReservedTargetERKNSt7__cxx1112basic_stringIcSt11char_traitsIcESaIcEEEE15reservedTargets, i64 3), align 16
  %26 = extractvalue { i64, ptr } %23, 1
  store ptr %26, ptr getelementptr inbounds ({ i64, ptr }, ptr getelementptr inbounds (%"class.cm::static_string_view", ptr @_ZZN17cmGlobalGenerator16IsReservedTargetERKNSt7__cxx1112basic_stringIcSt11char_traitsIcESaIcEEEE15reservedTargets, i64 3), i32 0, i32 1), align 8
  %27 = invoke { i64, ptr } @_ZN2cmli2_sEPKcm(ptr noundef @.str.263, i64 noundef 7)
          to label %28 unwind label %54

28:                                               ; preds = %24
  %29 = extractvalue { i64, ptr } %27, 0
  store i64 %29, ptr getelementptr inbounds (%"class.cm::static_string_view", ptr @_ZZN17cmGlobalGenerator16IsReservedTargetERKNSt7__cxx1112basic_stringIcSt11char_traitsIcESaIcEEEE15reservedTargets, i64 4), align 16
  %30 = extractvalue { i64, ptr } %27, 1
  store ptr %30, ptr getelementptr inbounds ({ i64, ptr }, ptr getelementptr inbounds (%"class.cm::static_string_view", ptr @_ZZN17cmGlobalGenerator16IsReservedTargetERKNSt7__cxx1112basic_stringIcSt11char_traitsIcESaIcEEEE15reservedTargets, i64 4), i32 0, i32 1), align 8
  %31 = invoke { i64, ptr } @_ZN2cmli2_sEPKcm(ptr noundef @.str.264, i64 noundef 10)
          to label %32 unwind label %54

32:                                               ; preds = %28
  %33 = extractvalue { i64, ptr } %31, 0
  store i64 %33, ptr getelementptr inbounds (%"class.cm::static_string_view", ptr @_ZZN17cmGlobalGenerator16IsReservedTargetERKNSt7__cxx1112basic_stringIcSt11char_traitsIcESaIcEEEE15reservedTargets, i64 5), align 16
  %34 = extractvalue { i64, ptr } %31, 1
  store ptr %34, ptr getelementptr inbounds ({ i64, ptr }, ptr getelementptr inbounds (%"class.cm::static_string_view", ptr @_ZZN17cmGlobalGenerator16IsReservedTargetERKNSt7__cxx1112basic_stringIcSt11char_traitsIcESaIcEEEE15reservedTargets, i64 5), i32 0, i32 1), align 8
  %35 = invoke { i64, ptr } @_ZN2cmli2_sEPKcm(ptr noundef @.str.177, i64 noundef 5)
          to label %36 unwind label %54

36:                                               ; preds = %32
  %37 = extractvalue { i64, ptr } %35, 0
  store i64 %37, ptr getelementptr inbounds (%"class.cm::static_string_view", ptr @_ZZN17cmGlobalGenerator16IsReservedTargetERKNSt7__cxx1112basic_stringIcSt11char_traitsIcESaIcEEEE15reservedTargets, i64 6), align 16
  %38 = extractvalue { i64, ptr } %35, 1
  store ptr %38, ptr getelementptr inbounds ({ i64, ptr }, ptr getelementptr inbounds (%"class.cm::static_string_view", ptr @_ZZN17cmGlobalGenerator16IsReservedTargetERKNSt7__cxx1112basic_stringIcSt11char_traitsIcESaIcEEEE15reservedTargets, i64 6), i32 0, i32 1), align 8
  %39 = invoke { i64, ptr } @_ZN2cmli2_sEPKcm(ptr noundef @.str.265, i64 noundef 10)
          to label %40 unwind label %54

40:                                               ; preds = %36
  %41 = extractvalue { i64, ptr } %39, 0
  store i64 %41, ptr getelementptr inbounds (%"class.cm::static_string_view", ptr @_ZZN17cmGlobalGenerator16IsReservedTargetERKNSt7__cxx1112basic_stringIcSt11char_traitsIcESaIcEEEE15reservedTargets, i64 7), align 16
  %42 = extractvalue { i64, ptr } %39, 1
  store ptr %42, ptr getelementptr inbounds ({ i64, ptr }, ptr getelementptr inbounds (%"class.cm::static_string_view", ptr @_ZZN17cmGlobalGenerator16IsReservedTargetERKNSt7__cxx1112basic_stringIcSt11char_traitsIcESaIcEEEE15reservedTargets, i64 7), i32 0, i32 1), align 8
  %43 = invoke { i64, ptr } @_ZN2cmli2_sEPKcm(ptr noundef @.str.266, i64 noundef 13)
          to label %44 unwind label %54

44:                                               ; preds = %40
  %45 = extractvalue { i64, ptr } %43, 0
  store i64 %45, ptr getelementptr inbounds (%"class.cm::static_string_view", ptr @_ZZN17cmGlobalGenerator16IsReservedTargetERKNSt7__cxx1112basic_stringIcSt11char_traitsIcESaIcEEEE15reservedTargets, i64 8), align 16
  %46 = extractvalue { i64, ptr } %43, 1
  store ptr %46, ptr getelementptr inbounds ({ i64, ptr }, ptr getelementptr inbounds (%"class.cm::static_string_view", ptr @_ZZN17cmGlobalGenerator16IsReservedTargetERKNSt7__cxx1112basic_stringIcSt11char_traitsIcESaIcEEEE15reservedTargets, i64 8), i32 0, i32 1), align 8
  %47 = invoke { i64, ptr } @_ZN2cmli2_sEPKcm(ptr noundef @.str.267, i64 noundef 10)
          to label %48 unwind label %54

48:                                               ; preds = %44
  %49 = extractvalue { i64, ptr } %47, 0
  store i64 %49, ptr getelementptr inbounds (%"class.cm::static_string_view", ptr @_ZZN17cmGlobalGenerator16IsReservedTargetERKNSt7__cxx1112basic_stringIcSt11char_traitsIcESaIcEEEE15reservedTargets, i64 9), align 16
  %50 = extractvalue { i64, ptr } %47, 1
  store ptr %50, ptr getelementptr inbounds ({ i64, ptr }, ptr getelementptr inbounds (%"class.cm::static_string_view", ptr @_ZZN17cmGlobalGenerator16IsReservedTargetERKNSt7__cxx1112basic_stringIcSt11char_traitsIcESaIcEEEE15reservedTargets, i64 9), i32 0, i32 1), align 8
  call void @__cxa_guard_release(ptr @_ZGVZN17cmGlobalGenerator16IsReservedTargetERKNSt7__cxx1112basic_stringIcSt11char_traitsIcESaIcEEEE15reservedTargets) #3
  br label %51

51:                                               ; preds = %48, %7, %1
  %52 = load ptr, ptr %2, align 8
  %53 = call noundef zeroext i1 @_ZN2cm8containsIA10_NS_18static_string_viewENSt7__cxx1112basic_stringIcSt11char_traitsIcESaIcEEETnNSt9enable_ifIXaasr2cm14is_input_rangeIT_EE5valuentoosr2cm24is_associative_containerISA_EE5valuesr2cm34is_unordered_associative_containerISA_EE5valueEiE4typeELi0EEEbRKSA_RKT0_(ptr noundef nonnull align 8 dereferenceable(160) @_ZZN17cmGlobalGenerator16IsReservedTargetERKNSt7__cxx1112basic_stringIcSt11char_traitsIcESaIcEEEE15reservedTargets, ptr noundef nonnull align 8 dereferenceable(32) %52)
  ret i1 %53

54:                                               ; preds = %44, %40, %36, %32, %28, %24, %20, %16, %12, %10
  %55 = landingpad { ptr, i32 }
          cleanup
  %56 = extractvalue { ptr, i32 } %55, 0
  store ptr %56, ptr %3, align 8
  %57 = extractvalue { ptr, i32 } %55, 1
  store i32 %57, ptr %4, align 4
  call void @__cxa_guard_abort(ptr @_ZGVZN17cmGlobalGenerator16IsReservedTargetERKNSt7__cxx1112basic_stringIcSt11char_traitsIcESaIcEEEE15reservedTargets) #3
  br label %58

58:                                               ; preds = %54
  %59 = load ptr, ptr %3, align 8
  %60 = load i32, ptr %4, align 4
  %61 = insertvalue { ptr, i32 } poison, ptr %59, 0
  %62 = insertvalue { ptr, i32 } %61, i32 %60, 1
  resume { ptr, i32 } %62
}