; Function Attrs: mustprogress uwtable
define dso_local noundef zeroext i1 @_ZN17cmGlobalGenerator16IsReservedTargetERKNSt7__cxx1112basic_stringIcSt11char_traitsIcESaIcEEE(ptr noundef nonnull align 8 dereferenceable(32) %0) local_unnamed_addr #3 align 2 personality ptr @__gxx_personality_v0 {
  %2 = load atomic i8, ptr @_ZGVZN17cmGlobalGenerator16IsReservedTargetERKNSt7__cxx1112basic_stringIcSt11char_traitsIcESaIcEEEE15reservedTargets acquire, align 8
  %3 = icmp eq i8 %2, 0
  br i1 %3, label %4, label %7, !prof !725

4:                                                ; preds = %1
  %5 = tail call i32 @__cxa_guard_acquire(ptr nonnull @_ZGVZN17cmGlobalGenerator16IsReservedTargetERKNSt7__cxx1112basic_stringIcSt11char_traitsIcESaIcEEEE15reservedTargets) #23
  %.not = icmp eq i32 %5, 0
  br i1 %.not, label %7, label %6

6:                                                ; preds = %4
  store i64 3, ptr @_ZZN17cmGlobalGenerator16IsReservedTargetERKNSt7__cxx1112basic_stringIcSt11char_traitsIcESaIcEEEE15reservedTargets, align 16
  store ptr @.str.259, ptr getelementptr inbounds ([10 x %"class.cm::static_string_view"], ptr @_ZZN17cmGlobalGenerator16IsReservedTargetERKNSt7__cxx1112basic_stringIcSt11char_traitsIcESaIcEEEE15reservedTargets, i64 0, i64 0, i32 0, i32 1), align 8
  store i64 9, ptr getelementptr inbounds ([10 x %"class.cm::static_string_view"], ptr @_ZZN17cmGlobalGenerator16IsReservedTargetERKNSt7__cxx1112basic_stringIcSt11char_traitsIcESaIcEEEE15reservedTargets, i64 0, i64 1), align 16
  store ptr @.str.260, ptr getelementptr inbounds ([10 x %"class.cm::static_string_view"], ptr @_ZZN17cmGlobalGenerator16IsReservedTargetERKNSt7__cxx1112basic_stringIcSt11char_traitsIcESaIcEEEE15reservedTargets, i64 0, i64 1, i32 0, i32 1), align 8
  store i64 4, ptr getelementptr inbounds ([10 x %"class.cm::static_string_view"], ptr @_ZZN17cmGlobalGenerator16IsReservedTargetERKNSt7__cxx1112basic_stringIcSt11char_traitsIcESaIcEEEE15reservedTargets, i64 0, i64 2), align 16
  store ptr @.str.261, ptr getelementptr inbounds ([10 x %"class.cm::static_string_view"], ptr @_ZZN17cmGlobalGenerator16IsReservedTargetERKNSt7__cxx1112basic_stringIcSt11char_traitsIcESaIcEEEE15reservedTargets, i64 0, i64 2, i32 0, i32 1), align 8
  store i64 7, ptr getelementptr inbounds ([10 x %"class.cm::static_string_view"], ptr @_ZZN17cmGlobalGenerator16IsReservedTargetERKNSt7__cxx1112basic_stringIcSt11char_traitsIcESaIcEEEE15reservedTargets, i64 0, i64 3), align 16
  store ptr @.str.262, ptr getelementptr inbounds ([10 x %"class.cm::static_string_view"], ptr @_ZZN17cmGlobalGenerator16IsReservedTargetERKNSt7__cxx1112basic_stringIcSt11char_traitsIcESaIcEEEE15reservedTargets, i64 0, i64 3, i32 0, i32 1), align 8
  store i64 7, ptr getelementptr inbounds ([10 x %"class.cm::static_string_view"], ptr @_ZZN17cmGlobalGenerator16IsReservedTargetERKNSt7__cxx1112basic_stringIcSt11char_traitsIcESaIcEEEE15reservedTargets, i64 0, i64 4), align 16
  store ptr @.str.263, ptr getelementptr inbounds ([10 x %"class.cm::static_string_view"], ptr @_ZZN17cmGlobalGenerator16IsReservedTargetERKNSt7__cxx1112basic_stringIcSt11char_traitsIcESaIcEEEE15reservedTargets, i64 0, i64 4, i32 0, i32 1), align 8
  store i64 10, ptr getelementptr inbounds ([10 x %"class.cm::static_string_view"], ptr @_ZZN17cmGlobalGenerator16IsReservedTargetERKNSt7__cxx1112basic_stringIcSt11char_traitsIcESaIcEEEE15reservedTargets, i64 0, i64 5), align 16
  store ptr @.str.264, ptr getelementptr inbounds ([10 x %"class.cm::static_string_view"], ptr @_ZZN17cmGlobalGenerator16IsReservedTargetERKNSt7__cxx1112basic_stringIcSt11char_traitsIcESaIcEEEE15reservedTargets, i64 0, i64 5, i32 0, i32 1), align 8
  store i64 5, ptr getelementptr inbounds ([10 x %"class.cm::static_string_view"], ptr @_ZZN17cmGlobalGenerator16IsReservedTargetERKNSt7__cxx1112basic_stringIcSt11char_traitsIcESaIcEEEE15reservedTargets, i64 0, i64 6), align 16
  store ptr @.str.177, ptr getelementptr inbounds ([10 x %"class.cm::static_string_view"], ptr @_ZZN17cmGlobalGenerator16IsReservedTargetERKNSt7__cxx1112basic_stringIcSt11char_traitsIcESaIcEEEE15reservedTargets, i64 0, i64 6, i32 0, i32 1), align 8
  store i64 10, ptr getelementptr inbounds ([10 x %"class.cm::static_string_view"], ptr @_ZZN17cmGlobalGenerator16IsReservedTargetERKNSt7__cxx1112basic_stringIcSt11char_traitsIcESaIcEEEE15reservedTargets, i64 0, i64 7), align 16
  store ptr @.str.265, ptr getelementptr inbounds ([10 x %"class.cm::static_string_view"], ptr @_ZZN17cmGlobalGenerator16IsReservedTargetERKNSt7__cxx1112basic_stringIcSt11char_traitsIcESaIcEEEE15reservedTargets, i64 0, i64 7, i32 0, i32 1), align 8
  store i64 13, ptr getelementptr inbounds ([10 x %"class.cm::static_string_view"], ptr @_ZZN17cmGlobalGenerator16IsReservedTargetERKNSt7__cxx1112basic_stringIcSt11char_traitsIcESaIcEEEE15reservedTargets, i64 0, i64 8), align 16
  store ptr @.str.266, ptr getelementptr inbounds ([10 x %"class.cm::static_string_view"], ptr @_ZZN17cmGlobalGenerator16IsReservedTargetERKNSt7__cxx1112basic_stringIcSt11char_traitsIcESaIcEEEE15reservedTargets, i64 0, i64 8, i32 0, i32 1), align 8
  store i64 10, ptr getelementptr inbounds ([10 x %"class.cm::static_string_view"], ptr @_ZZN17cmGlobalGenerator16IsReservedTargetERKNSt7__cxx1112basic_stringIcSt11char_traitsIcESaIcEEEE15reservedTargets, i64 0, i64 9), align 16
  store ptr @.str.267, ptr getelementptr inbounds ([10 x %"class.cm::static_string_view"], ptr @_ZZN17cmGlobalGenerator16IsReservedTargetERKNSt7__cxx1112basic_stringIcSt11char_traitsIcESaIcEEEE15reservedTargets, i64 0, i64 9, i32 0, i32 1), align 8
  tail call void @__cxa_guard_release(ptr nonnull @_ZGVZN17cmGlobalGenerator16IsReservedTargetERKNSt7__cxx1112basic_stringIcSt11char_traitsIcESaIcEEEE15reservedTargets) #23
  br label %7

7:                                                ; preds = %6, %4, %1
  %8 = tail call noundef ptr @_ZSt9__find_ifIPKN2cm18static_string_viewEN9__gnu_cxx5__ops16_Iter_equals_valIKNSt7__cxx1112basic_stringIcSt11char_traitsIcESaIcEEEEEET_SF_SF_T0_St26random_access_iterator_tag(ptr noundef nonnull @_ZZN17cmGlobalGenerator16IsReservedTargetERKNSt7__cxx1112basic_stringIcSt11char_traitsIcESaIcEEEE15reservedTargets, ptr noundef nonnull getelementptr inbounds ([10 x %"class.cm::static_string_view"], ptr @_ZZN17cmGlobalGenerator16IsReservedTargetERKNSt7__cxx1112basic_stringIcSt11char_traitsIcESaIcEEEE15reservedTargets, i64 1, i64 0, i32 0, i32 0), ptr nonnull %0)
  %9 = icmp ne ptr %8, getelementptr inbounds ([10 x %"class.cm::static_string_view"], ptr @_ZZN17cmGlobalGenerator16IsReservedTargetERKNSt7__cxx1112basic_stringIcSt11char_traitsIcESaIcEEEE15reservedTargets, i64 1, i64 0, i32 0, i32 0)
  ret i1 %9
}